; Function Attrs: mustprogress uwtable
define noundef i32 @_Z14cpp_close_filePP7gmx_cpp(ptr nocapture noundef readonly %0) local_unnamed_addr #0 {
  %2 = load ptr, ptr %0, align 8
  %.not = icmp eq ptr %2, null
  br i1 %.not, label %14, label %3

3:                                                ; preds = %1
  %4 = getelementptr inbounds i8, ptr %2, i64 88
  %5 = load ptr, ptr %4, align 8
  %.not11 = icmp eq ptr %5, null
  br i1 %.not11, label %14, label %6

6:                                                ; preds = %3
  %7 = tail call i32 @fclose(ptr noundef nonnull %5)
  %8 = getelementptr inbounds i8, ptr %2, i64 136
  %9 = tail call noundef zeroext i1 @_ZNKSt7__cxx1112basic_stringIcSt11char_traitsIcESaIcEE5emptyEv(ptr noundef nonnull align 8 dereferenceable(32) %8) #20
  br i1 %9, label %11, label %10

10:                                               ; preds = %6
  tail call void @_Z9gmx_chdirRKNSt10filesystem7__cxx114pathE(ptr noundef nonnull align 8 dereferenceable(40) %8)
  br label %11

11:                                               ; preds = %10, %6
  store ptr null, ptr %4, align 8
  %12 = getelementptr inbounds i8, ptr %2, i64 248
  store i32 0, ptr %12, align 8
  %13 = getelementptr inbounds i8, ptr %2, i64 216
  tail call void @_ZNSt7__cxx1112basic_stringIcSt11char_traitsIcESaIcEE5clearEv(ptr noundef nonnull align 8 dereferenceable(32) %13) #20
  br label %14

14:                                               ; preds = %3, %1, %11
  %.0 = phi i32 [ 0, %11 ], [ 5, %1 ], [ 7, %3 ]
  ret i32 %.0
}